; Function Attrs: nounwind uwtable
define ptr @l_Lean_Compiler_LCNF_AlphaEqv_withParams(ptr noundef readonly captures(none) %0, ptr noundef readonly captures(none) %1, ptr noundef %2, ptr noundef %3) local_unnamed_addr #0 {
lean_dec.exit18:
  %4 = getelementptr i8, ptr %1, i64 8
  %.val26 = load i64, ptr %4, align 8, !tbaa !13
  %5 = getelementptr i8, ptr %0, i64 8
  %.val = load i64, ptr %5, align 8, !tbaa !13
  %.unshifted = xor i64 %.val, %.val26
  %.mask = and i64 %.unshifted, 9223372036854775807
  %.not = icmp eq i64 %.mask, 0
  br i1 %.not, label %25, label %6

6:                                                ; preds = %lean_dec.exit18
  %7 = ptrtoint ptr %3 to i64
  %8 = and i64 %7, 1
  %.not27 = icmp eq i64 %8, 0
  br i1 %.not27, label %9, label %lean_dec.exit17

9:                                                ; preds = %6
  %10 = load i32, ptr %3, align 4, !tbaa !8
  %11 = icmp sgt i32 %10, 1
  br i1 %11, label %12, label %14, !prof !11

12:                                               ; preds = %9
  %13 = add nsw i32 %10, -1
  store i32 %13, ptr %3, align 4, !tbaa !8
  br label %lean_dec.exit17

14:                                               ; preds = %9
  %.not.i22 = icmp eq i32 %10, 0
  br i1 %.not.i22, label %lean_dec.exit17, label %15

15:                                               ; preds = %14
  tail call void @lean_dec_ref_cold(ptr noundef nonnull %3) #4
  br label %lean_dec.exit17

lean_dec.exit17:                                  ; preds = %15, %14, %12, %6
  %16 = ptrtoint ptr %2 to i64
  %17 = and i64 %16, 1
  %.not28 = icmp eq i64 %17, 0
  br i1 %.not28, label %18, label %lean_dec.exit

18:                                               ; preds = %lean_dec.exit17
  %19 = load i32, ptr %2, align 4, !tbaa !8
  %20 = icmp sgt i32 %19, 1
  br i1 %20, label %21, label %23, !prof !11

21:                                               ; preds = %18
  %22 = add nsw i32 %19, -1
  store i32 %22, ptr %2, align 4, !tbaa !8
  br label %lean_dec.exit

23:                                               ; preds = %18
  %.not.i24 = icmp eq i32 %19, 0
  br i1 %.not.i24, label %lean_dec.exit, label %24

24:                                               ; preds = %23
  tail call void @lean_dec_ref_cold(ptr noundef nonnull %2) #4
  br label %lean_dec.exit

25:                                               ; preds = %lean_dec.exit18
  %26 = tail call ptr @l_Lean_Compiler_LCNF_AlphaEqv_withParams_go(ptr noundef nonnull %0, ptr noundef nonnull %1, ptr noundef %2, ptr nonnull poison, ptr noundef nonnull inttoptr (i64 1 to ptr), ptr noundef %3)
  br label %lean_dec.exit

lean_dec.exit:                                    ; preds = %lean_dec.exit17, %21, %23, %24, %25
  %.0 = phi ptr [ %26, %25 ], [ inttoptr (i64 1 to ptr), %24 ], [ inttoptr (i64 1 to ptr), %23 ], [ inttoptr (i64 1 to ptr), %21 ], [ inttoptr (i64 1 to ptr), %lean_dec.exit17 ]
  ret ptr %.0
}